target datalayout = "e-m:e-p270:32:32-p271:32:32-p272:64:64-i64:64-i128:128-f80:128-n8:16:32:64-S128"
target triple = "x86_64-pc-linux-gnu"

%struct._zval_struct = type { %union._zend_value, %union.anon, %union.anon.2 }
%union._zend_value = type { i64 }
%union.anon = type { i32 }
%union.anon.2 = type { i32 }
%struct._zend_refcounted_h = type { i32, %union.anon.3 }
%union.anon.3 = type { i32 }
%struct._zend_execute_data = type { ptr, ptr, ptr, ptr, %struct._zval_struct, ptr, ptr, ptr, ptr }
%struct._zend_string = type { %struct._zend_refcounted_h, i64, i64, [1 x i8] }
%struct.anon.0 = type { i8, i8, %union.anon.1 }
%union.anon.1 = type { i16 }

; Function Attrs: alwaysinline nounwind uwtable
define internal zeroext i8 @zval_get_type(ptr noundef %0) #7 {
  %2 = alloca ptr, align 8
  store ptr %0, ptr %2, align 8, !tbaa !15
  %3 = load ptr, ptr %2, align 8, !tbaa !15
  %4 = getelementptr inbounds nuw %struct._zval_struct, ptr %3, i32 0, i32 1
  %5 = getelementptr inbounds nuw %struct.anon.0, ptr %4, i32 0, i32 0
  %6 = load i8, ptr %5, align 8, !tbaa !12
  ret i8 %6
}

; Function Attrs: alwaysinline nounwind uwtable
define internal zeroext i1 @zend_parse_arg_str_ex(ptr noundef %0, ptr noundef %1, i1 noundef zeroext %2, i32 noundef %3, i1 noundef zeroext %4) #7 {
  %6 = alloca i1, align 1
  %7 = alloca ptr, align 8
  %8 = alloca ptr, align 8
  %9 = alloca i8, align 1
  %10 = alloca i32, align 4
  %11 = alloca i8, align 1
  store ptr %0, ptr %7, align 8, !tbaa !15
  store ptr %1, ptr %8, align 8, !tbaa !29
  %12 = zext i1 %2 to i8
  store i8 %12, ptr %9, align 1, !tbaa !19
  store i32 %3, ptr %10, align 4, !tbaa !17
  %13 = zext i1 %4 to i8
  store i8 %13, ptr %11, align 1, !tbaa !19
  %14 = load ptr, ptr %7, align 8, !tbaa !15
  %15 = call zeroext i8 @zval_get_type(ptr noundef %14)
  %16 = zext i8 %15 to i32
  %17 = icmp eq i32 %16, 6
  %18 = xor i1 %17, true
  %19 = xor i1 %18, true
  %20 = zext i1 %19 to i32
  %21 = sext i32 %20 to i64
  %22 = call i64 @llvm.expect.i64(i64 %21, i64 1)
  %23 = icmp ne i64 %22, 0
  br i1 %23, label %24, label %29

24:                                               ; preds = %5
  %25 = load ptr, ptr %7, align 8, !tbaa !15
  %26 = getelementptr inbounds nuw %struct._zval_struct, ptr %25, i32 0, i32 0
  %27 = load ptr, ptr %26, align 8, !tbaa !12
  %28 = load ptr, ptr %8, align 8, !tbaa !29
  store ptr %27, ptr %28, align 8, !tbaa !23
  br label %53

29:                                               ; preds = %5
  %30 = load i8, ptr %9, align 1, !tbaa !19, !range !21, !noundef !22
  %31 = trunc i8 %30 to i1
  br i1 %31, label %32, label %39

32:                                               ; preds = %29
  %33 = load ptr, ptr %7, align 8, !tbaa !15
  %34 = call zeroext i8 @zval_get_type(ptr noundef %33)
  %35 = zext i8 %34 to i32
  %36 = icmp eq i32 %35, 1
  br i1 %36, label %37, label %39

37:                                               ; preds = %32
  %38 = load ptr, ptr %8, align 8, !tbaa !29
  store ptr null, ptr %38, align 8, !tbaa !23
  br label %52

39:                                               ; preds = %32, %29
  %40 = load i8, ptr %11, align 1, !tbaa !19, !range !21, !noundef !22
  %41 = trunc i8 %40 to i1
  br i1 %41, label %42, label %47

42:                                               ; preds = %39
  %43 = load ptr, ptr %7, align 8, !tbaa !15
  %44 = load ptr, ptr %8, align 8, !tbaa !29
  %45 = load i32, ptr %10, align 4, !tbaa !17
  %46 = call zeroext i1 @zend_flf_parse_arg_str_slow(ptr noundef %43, ptr noundef %44, i32 noundef %45)
  store i1 %46, ptr %6, align 1
  br label %54

47:                                               ; preds = %39
  %48 = load ptr, ptr %7, align 8, !tbaa !15
  %49 = load ptr, ptr %8, align 8, !tbaa !29
  %50 = load i32, ptr %10, align 4, !tbaa !17
  %51 = call zeroext i1 @zend_parse_arg_str_slow(ptr noundef %48, ptr noundef %49, i32 noundef %50)
  store i1 %51, ptr %6, align 1
  br label %54

52:                                               ; preds = %37
  br label %53

53:                                               ; preds = %52, %24
  store i1 true, ptr %6, align 1
  br label %54

54:                                               ; preds = %53, %47, %42
  %55 = load i1, ptr %6, align 1
  ret i1 %55
}

; Function Attrs: alwaysinline nounwind uwtable
define internal zeroext i1 @zend_parse_arg_str(ptr noundef %0, ptr noundef %1, i1 noundef zeroext %2, i32 noundef %3) #7 {
  %5 = alloca ptr, align 8
  %6 = alloca ptr, align 8
  %7 = alloca i8, align 1
  %8 = alloca i32, align 4
  store ptr %0, ptr %5, align 8, !tbaa !15
  store ptr %1, ptr %6, align 8, !tbaa !29
  %9 = zext i1 %2 to i8
  store i8 %9, ptr %7, align 1, !tbaa !19
  store i32 %3, ptr %8, align 4, !tbaa !17
  %10 = load ptr, ptr %5, align 8, !tbaa !15
  %11 = load ptr, ptr %6, align 8, !tbaa !29
  %12 = load i8, ptr %7, align 1, !tbaa !19, !range !21, !noundef !22
  %13 = trunc i8 %12 to i1
  %14 = load i32, ptr %8, align 4, !tbaa !17
  %15 = call zeroext i1 @zend_parse_arg_str_ex(ptr noundef %10, ptr noundef %11, i1 noundef zeroext %13, i32 noundef %14, i1 noundef zeroext false)
  ret i1 %15
}

; Function Attrs: nounwind uwtable
define hidden void @zif_strcoll(ptr noundef %0, ptr noundef %1) #0 {
  %3 = alloca ptr, align 8
  %4 = alloca ptr, align 8
  %5 = alloca ptr, align 8
  %6 = alloca ptr, align 8
  %7 = alloca i32, align 4
  %8 = alloca i32, align 4
  %9 = alloca i32, align 4
  %10 = alloca i32, align 4
  %11 = alloca i32, align 4
  %12 = alloca ptr, align 8
  %13 = alloca ptr, align 8
  %14 = alloca i32, align 4
  %15 = alloca ptr, align 8
  %16 = alloca i8, align 1
  %17 = alloca i8, align 1
  %18 = alloca i32, align 4
  %19 = alloca i32, align 4
  %20 = alloca ptr, align 8
  store ptr %0, ptr %3, align 8, !tbaa !13
  store ptr %1, ptr %4, align 8, !tbaa !15
  call void @llvm.lifetime.start.p0(i64 8, ptr %5) #22
  call void @llvm.lifetime.start.p0(i64 8, ptr %6) #22
  br label %21

21:                                               ; preds = %2
  call void @llvm.lifetime.start.p0(i64 4, ptr %7) #22
  store i32 0, ptr %7, align 4, !tbaa !17
  call void @llvm.lifetime.start.p0(i64 4, ptr %8) #22
  store i32 2, ptr %8, align 4, !tbaa !17
  call void @llvm.lifetime.start.p0(i64 4, ptr %9) #22
  store i32 2, ptr %9, align 4, !tbaa !17
  call void @llvm.lifetime.start.p0(i64 4, ptr %10) #22
  %22 = load ptr, ptr %3, align 8, !tbaa !13
  %23 = getelementptr inbounds nuw %struct._zend_execute_data, ptr %22, i32 0, i32 4
  %24 = getelementptr inbounds nuw %struct._zval_struct, ptr %23, i32 0, i32 2
  %25 = load i32, ptr %24, align 4, !tbaa !12
  store i32 %25, ptr %10, align 4, !tbaa !17
  call void @llvm.lifetime.start.p0(i64 4, ptr %11) #22
  store i32 0, ptr %11, align 4, !tbaa !17
  call void @llvm.lifetime.start.p0(i64 8, ptr %12) #22
  call void @llvm.lifetime.start.p0(i64 8, ptr %13) #22
  store ptr null, ptr %13, align 8, !tbaa !15
  call void @llvm.lifetime.start.p0(i64 4, ptr %14) #22
  store i32 0, ptr %14, align 4, !tbaa !17
  call void @llvm.lifetime.start.p0(i64 8, ptr %15) #22
  store ptr null, ptr %15, align 8, !tbaa !10
  call void @llvm.lifetime.start.p0(i64 1, ptr %16) #22
  store i8 0, ptr %16, align 1, !tbaa !19
  call void @llvm.lifetime.start.p0(i64 1, ptr %17) #22
  store i8 0, ptr %17, align 1, !tbaa !19
  call void @llvm.lifetime.start.p0(i64 4, ptr %18) #22
  store i32 0, ptr %18, align 4, !tbaa !17
  br label %26

26:                                               ; preds = %21
  %27 = load i32, ptr %10, align 4, !tbaa !17
  %28 = load i32, ptr %8, align 4, !tbaa !17
  %29 = icmp ult i32 %27, %28
  %30 = xor i1 %29, true
  %31 = xor i1 %30, true
  %32 = zext i1 %31 to i32
  %33 = sext i32 %32 to i64
  %34 = call i64 @llvm.expect.i64(i64 %33, i64 0)
  %35 = icmp ne i64 %34, 0
  br i1 %35, label %46, label %36

36:                                               ; preds = %26
  %37 = load i32, ptr %10, align 4, !tbaa !17
  %38 = load i32, ptr %9, align 4, !tbaa !17
  %39 = icmp ugt i32 %37, %38
  %40 = xor i1 %39, true
  %41 = xor i1 %40, true
  %42 = zext i1 %41 to i32
  %43 = sext i32 %42 to i64
  %44 = call i64 @llvm.expect.i64(i64 %43, i64 0)
  %45 = icmp ne i64 %44, 0
  br i1 %45, label %46, label %49

46:                                               ; preds = %36, %26
  %47 = load i32, ptr %8, align 4, !tbaa !17
  %48 = load i32, ptr %9, align 4, !tbaa !17
  call void @zend_wrong_parameters_count_error(i32 noundef %47, i32 noundef %48)
  store i32 1, ptr %18, align 4, !tbaa !17
  br label %165

49:                                               ; preds = %36
  %50 = load ptr, ptr %3, align 8, !tbaa !13
  %51 = getelementptr inbounds %struct._zval_struct, ptr %50, i64 4
  store ptr %51, ptr %12, align 8, !tbaa !15
  %52 = load i32, ptr %11, align 4, !tbaa !17
  %53 = add i32 %52, 1
  store i32 %53, ptr %11, align 4, !tbaa !17
  %54 = load i32, ptr %11, align 4, !tbaa !17
  %55 = load i32, ptr %8, align 4, !tbaa !17
  %56 = icmp ule i32 %54, %55
  br i1 %56, label %62, label %57

57:                                               ; preds = %49
  %58 = load i8, ptr %17, align 1, !tbaa !19, !range !21, !noundef !22
  %59 = trunc i8 %58 to i1
  %60 = zext i1 %59 to i32
  %61 = icmp eq i32 %60, 1
  br label %62

62:                                               ; preds = %57, %49
  %63 = phi i1 [ true, %49 ], [ %61, %57 ]
  call void @llvm.assume(i1 %63)
  %64 = load i32, ptr %11, align 4, !tbaa !17
  %65 = load i32, ptr %8, align 4, !tbaa !17
  %66 = icmp ugt i32 %64, %65
  br i1 %66, label %72, label %67

67:                                               ; preds = %62
  %68 = load i8, ptr %17, align 1, !tbaa !19, !range !21, !noundef !22
  %69 = trunc i8 %68 to i1
  %70 = zext i1 %69 to i32
  %71 = icmp eq i32 %70, 0
  br label %72

72:                                               ; preds = %67, %62
  %73 = phi i1 [ true, %62 ], [ %71, %67 ]
  call void @llvm.assume(i1 %73)
  %74 = load i8, ptr %17, align 1, !tbaa !19, !range !21, !noundef !22
  %75 = trunc i8 %74 to i1
  br i1 %75, label %76, label %88

76:                                               ; preds = %72
  %77 = load i32, ptr %11, align 4, !tbaa !17
  %78 = load i32, ptr %10, align 4, !tbaa !17
  %79 = icmp ugt i32 %77, %78
  %80 = xor i1 %79, true
  %81 = xor i1 %80, true
  %82 = zext i1 %81 to i32
  %83 = sext i32 %82 to i64
  %84 = call i64 @llvm.expect.i64(i64 %83, i64 0)
  %85 = icmp ne i64 %84, 0
  br i1 %85, label %86, label %87

86:                                               ; preds = %76
  br label %165

87:                                               ; preds = %76
  br label %88

88:                                               ; preds = %87, %72
  %89 = load ptr, ptr %12, align 8, !tbaa !15
  %90 = getelementptr inbounds nuw %struct._zval_struct, ptr %89, i32 1
  store ptr %90, ptr %12, align 8, !tbaa !15
  %91 = load ptr, ptr %12, align 8, !tbaa !15
  store ptr %91, ptr %13, align 8, !tbaa !15
  %92 = load ptr, ptr %13, align 8, !tbaa !15
  %93 = load i32, ptr %11, align 4, !tbaa !17
  %94 = call zeroext i1 @zend_parse_arg_str(ptr noundef %92, ptr noundef %5, i1 noundef zeroext false, i32 noundef %93)
  %95 = xor i1 %94, true
  %96 = xor i1 %95, true
  %97 = xor i1 %96, true
  %98 = zext i1 %97 to i32
  %99 = sext i32 %98 to i64
  %100 = call i64 @llvm.expect.i64(i64 %99, i64 0)
  %101 = icmp ne i64 %100, 0
  br i1 %101, label %102, label %103

102:                                              ; preds = %88
  store i32 4, ptr %14, align 4, !tbaa !17
  store i32 9, ptr %18, align 4, !tbaa !17
  br label %165

103:                                              ; preds = %88
  %104 = load i32, ptr %11, align 4, !tbaa !17
  %105 = add i32 %104, 1
  store i32 %105, ptr %11, align 4, !tbaa !17
  %106 = load i32, ptr %11, align 4, !tbaa !17
  %107 = load i32, ptr %8, align 4, !tbaa !17
  %108 = icmp ule i32 %106, %107
  br i1 %108, label %114, label %109

109:                                              ; preds = %103
  %110 = load i8, ptr %17, align 1, !tbaa !19, !range !21, !noundef !22
  %111 = trunc i8 %110 to i1
  %112 = zext i1 %111 to i32
  %113 = icmp eq i32 %112, 1
  br label %114

114:                                              ; preds = %109, %103
  %115 = phi i1 [ true, %103 ], [ %113, %109 ]
  call void @llvm.assume(i1 %115)
  %116 = load i32, ptr %11, align 4, !tbaa !17
  %117 = load i32, ptr %8, align 4, !tbaa !17
  %118 = icmp ugt i32 %116, %117
  br i1 %118, label %124, label %119

119:                                              ; preds = %114
  %120 = load i8, ptr %17, align 1, !tbaa !19, !range !21, !noundef !22
  %121 = trunc i8 %120 to i1
  %122 = zext i1 %121 to i32
  %123 = icmp eq i32 %122, 0
  br label %124

124:                                              ; preds = %119, %114
  %125 = phi i1 [ true, %114 ], [ %123, %119 ]
  call void @llvm.assume(i1 %125)
  %126 = load i8, ptr %17, align 1, !tbaa !19, !range !21, !noundef !22
  %127 = trunc i8 %126 to i1
  br i1 %127, label %128, label %140

128:                                              ; preds = %124
  %129 = load i32, ptr %11, align 4, !tbaa !17
  %130 = load i32, ptr %10, align 4, !tbaa !17
  %131 = icmp ugt i32 %129, %130
  %132 = xor i1 %131, true
  %133 = xor i1 %132, true
  %134 = zext i1 %133 to i32
  %135 = sext i32 %134 to i64
  %136 = call i64 @llvm.expect.i64(i64 %135, i64 0)
  %137 = icmp ne i64 %136, 0
  br i1 %137, label %138, label %139

138:                                              ; preds = %128
  br label %165

139:                                              ; preds = %128
  br label %140

140:                                              ; preds = %139, %124
  %141 = load ptr, ptr %12, align 8, !tbaa !15
  %142 = getelementptr inbounds nuw %struct._zval_struct, ptr %141, i32 1
  store ptr %142, ptr %12, align 8, !tbaa !15
  %143 = load ptr, ptr %12, align 8, !tbaa !15
  store ptr %143, ptr %13, align 8, !tbaa !15
  %144 = load ptr, ptr %13, align 8, !tbaa !15
  %145 = load i32, ptr %11, align 4, !tbaa !17
  %146 = call zeroext i1 @zend_parse_arg_str(ptr noundef %144, ptr noundef %6, i1 noundef zeroext false, i32 noundef %145)
  %147 = xor i1 %146, true
  %148 = xor i1 %147, true
  %149 = xor i1 %148, true
  %150 = zext i1 %149 to i32
  %151 = sext i32 %150 to i64
  %152 = call i64 @llvm.expect.i64(i64 %151, i64 0)
  %153 = icmp ne i64 %152, 0
  br i1 %153, label %154, label %155

154:                                              ; preds = %140
  store i32 4, ptr %14, align 4, !tbaa !17
  store i32 9, ptr %18, align 4, !tbaa !17
  br label %165

155:                                              ; preds = %140
  %156 = load i32, ptr %11, align 4, !tbaa !17
  %157 = load i32, ptr %9, align 4, !tbaa !17
  %158 = icmp eq i32 %156, %157
  br i1 %158, label %162, label %159

159:                                              ; preds = %155
  %160 = load i32, ptr %9, align 4, !tbaa !17
  %161 = icmp eq i32 %160, -1
  br label %162

162:                                              ; preds = %159, %155
  %163 = phi i1 [ true, %155 ], [ %161, %159 ]
  call void @llvm.assume(i1 %163)
  br label %164

164:                                              ; preds = %162
  br label %165

165:                                              ; preds = %164, %154, %138, %102, %86, %46
  %166 = load i32, ptr %18, align 4, !tbaa !17
  %167 = icmp ne i32 %166, 0
  %168 = xor i1 %167, true
  %169 = xor i1 %168, true
  %170 = zext i1 %169 to i32
  %171 = sext i32 %170 to i64
  %172 = call i64 @llvm.expect.i64(i64 %171, i64 0)
  %173 = icmp ne i64 %172, 0
  br i1 %173, label %174, label %180

174:                                              ; preds = %165
  %175 = load i32, ptr %18, align 4, !tbaa !17
  %176 = load i32, ptr %11, align 4, !tbaa !17
  %177 = load ptr, ptr %15, align 8, !tbaa !10
  %178 = load i32, ptr %14, align 4, !tbaa !17
  %179 = load ptr, ptr %13, align 8, !tbaa !15
  call void @zend_wrong_parameter_error(i32 noundef %175, i32 noundef %176, ptr noundef %177, i32 noundef %178, ptr noundef %179)
  store i32 1, ptr %19, align 4
  br label %181

180:                                              ; preds = %165
  store i32 0, ptr %19, align 4
  br label %181

181:                                              ; preds = %180, %174
  call void @llvm.lifetime.end.p0(i64 4, ptr %18) #22
  call void @llvm.lifetime.end.p0(i64 1, ptr %17) #22
  call void @llvm.lifetime.end.p0(i64 1, ptr %16) #22
  call void @llvm.lifetime.end.p0(i64 8, ptr %15) #22
  call void @llvm.lifetime.end.p0(i64 4, ptr %14) #22
  call void @llvm.lifetime.end.p0(i64 8, ptr %13) #22
  call void @llvm.lifetime.end.p0(i64 8, ptr %12) #22
  call void @llvm.lifetime.end.p0(i64 4, ptr %11) #22
  call void @llvm.lifetime.end.p0(i64 4, ptr %10) #22
  call void @llvm.lifetime.end.p0(i64 4, ptr %9) #22
  call void @llvm.lifetime.end.p0(i64 4, ptr %8) #22
  call void @llvm.lifetime.end.p0(i64 4, ptr %7) #22
  %182 = load i32, ptr %19, align 4
  switch i32 %182, label %205 [
    i32 0, label %183
  ]

183:                                              ; preds = %181
  br label %184

184:                                              ; preds = %183
  br label %185

185:                                              ; preds = %184
  br label %186

186:                                              ; preds = %185
  br label %187

187:                                              ; preds = %186
  call void @llvm.lifetime.start.p0(i64 8, ptr %20) #22
  %188 = load ptr, ptr %4, align 8, !tbaa !15
  store ptr %188, ptr %20, align 8, !tbaa !15
  %189 = load ptr, ptr %5, align 8, !tbaa !23
  %190 = getelementptr inbounds nuw %struct._zend_string, ptr %189, i32 0, i32 3
  %191 = getelementptr inbounds [1 x i8], ptr %190, i64 0, i64 0
  %192 = load ptr, ptr %6, align 8, !tbaa !23
  %193 = getelementptr inbounds nuw %struct._zend_string, ptr %192, i32 0, i32 3
  %194 = getelementptr inbounds [1 x i8], ptr %193, i64 0, i64 0
  %195 = call i32 @strcoll(ptr noundef %191, ptr noundef %194) #23
  %196 = sext i32 %195 to i64
  %197 = load ptr, ptr %20, align 8, !tbaa !15
  %198 = getelementptr inbounds nuw %struct._zval_struct, ptr %197, i32 0, i32 0
  store i64 %196, ptr %198, align 8, !tbaa !12
  %199 = load ptr, ptr %20, align 8, !tbaa !15
  %200 = getelementptr inbounds nuw %struct._zval_struct, ptr %199, i32 0, i32 1
  store i32 4, ptr %200, align 8, !tbaa !12
  call void @llvm.lifetime.end.p0(i64 8, ptr %20) #22
  br label %201

201:                                              ; preds = %187
  br label %202

202:                                              ; preds = %201
  store i32 1, ptr %19, align 4
  br label %205

203:                                              ; No predecessors!
  br label %204

204:                                              ; preds = %203
  store i32 0, ptr %19, align 4
  br label %205

205:                                              ; preds = %204, %202, %181
  call void @llvm.lifetime.end.p0(i64 8, ptr %6) #22
  call void @llvm.lifetime.end.p0(i64 8, ptr %5) #22
  %206 = load i32, ptr %19, align 4
  switch i32 %206, label %208 [
    i32 0, label %207
    i32 1, label %207
  ]

207:                                              ; preds = %205, %205
  ret void

208:                                              ; preds = %205
  unreachable
}