; Function Attrs: nounwind uwtable
define hidden void @zif_strcoll(ptr noundef %0, ptr noundef writeonly captures(none) %1) local_unnamed_addr #0 {
  %3 = alloca ptr, align 8
  %4 = alloca ptr, align 8
  call void @llvm.lifetime.start.p0(i64 8, ptr nonnull %3) #28
  call void @llvm.lifetime.start.p0(i64 8, ptr nonnull %4) #28
  %5 = getelementptr inbounds nuw i8, ptr %0, i64 44
  %6 = load i32, ptr %5, align 4, !tbaa !10
  %.not = icmp eq i32 %6, 2
  br i1 %.not, label %8, label %7, !prof !11

7:                                                ; preds = %2
  tail call void @zend_wrong_parameters_count_error(i32 noundef 2, i32 noundef 2) #28
  br label %.thread69

8:                                                ; preds = %2
  %9 = getelementptr inbounds nuw i8, ptr %0, i64 80
  %10 = getelementptr inbounds nuw i8, ptr %0, i64 88
  %11 = load i8, ptr %10, align 8, !tbaa !10
  %12 = icmp eq i8 %11, 6
  br i1 %12, label %zend_parse_arg_str_ex.exit.thread, label %zend_parse_arg_str_ex.exit, !prof !12

zend_parse_arg_str_ex.exit.thread:                ; preds = %8
  %13 = load ptr, ptr %9, align 8, !tbaa !10
  store ptr %13, ptr %3, align 8, !tbaa !13
  br label %15

zend_parse_arg_str_ex.exit:                       ; preds = %8
  %14 = call zeroext i1 @zend_parse_arg_str_slow(ptr noundef nonnull %9, ptr noundef nonnull %3, i32 noundef 1) #28
  br i1 %14, label %15, label %.thread69, !prof !15

15:                                               ; preds = %zend_parse_arg_str_ex.exit.thread, %zend_parse_arg_str_ex.exit
  %16 = getelementptr inbounds nuw i8, ptr %0, i64 96
  %17 = getelementptr inbounds nuw i8, ptr %0, i64 104
  %18 = load i8, ptr %17, align 8, !tbaa !10
  %19 = icmp eq i8 %18, 6
  br i1 %19, label %.thread79, label %zend_parse_arg_str_ex.exit57, !prof !12

.thread79:                                        ; preds = %15
  %20 = load ptr, ptr %16, align 8, !tbaa !10
  store ptr %20, ptr %4, align 8, !tbaa !13
  br label %.critedge

zend_parse_arg_str_ex.exit57:                     ; preds = %15
  %21 = call zeroext i1 @zend_parse_arg_str_slow(ptr noundef nonnull %16, ptr noundef nonnull %4, i32 noundef 2) #28
  %cond.fr59 = freeze i1 %21
  br i1 %cond.fr59, label %zend_parse_arg_str_ex.exit57..critedge_crit_edge, label %.thread69, !prof !15

zend_parse_arg_str_ex.exit57..critedge_crit_edge: ; preds = %zend_parse_arg_str_ex.exit57
  %.pre = load ptr, ptr %4, align 8, !tbaa !13
  br label %.critedge

.thread69:                                        ; preds = %zend_parse_arg_str_ex.exit57, %zend_parse_arg_str_ex.exit, %7
  %.078 = phi i32 [ 1, %zend_parse_arg_str_ex.exit ], [ 0, %7 ], [ 2, %zend_parse_arg_str_ex.exit57 ]
  %.04977 = phi i32 [ 9, %zend_parse_arg_str_ex.exit ], [ 1, %7 ], [ 9, %zend_parse_arg_str_ex.exit57 ]
  %.05076 = phi ptr [ %9, %zend_parse_arg_str_ex.exit ], [ null, %7 ], [ %16, %zend_parse_arg_str_ex.exit57 ]
  %.05175 = phi i32 [ 4, %zend_parse_arg_str_ex.exit ], [ 0, %7 ], [ 4, %zend_parse_arg_str_ex.exit57 ]
  call void @zend_wrong_parameter_error(i32 noundef %.04977, i32 noundef %.078, ptr noundef null, i32 noundef %.05175, ptr noundef %.05076) #28
  br label %29

.critedge:                                        ; preds = %zend_parse_arg_str_ex.exit57..critedge_crit_edge, %.thread79
  %22 = phi ptr [ %.pre, %zend_parse_arg_str_ex.exit57..critedge_crit_edge ], [ %20, %.thread79 ]
  %23 = load ptr, ptr %3, align 8, !tbaa !13
  %24 = getelementptr inbounds nuw i8, ptr %23, i64 24
  %25 = getelementptr inbounds nuw i8, ptr %22, i64 24
  %26 = call i32 @strcoll(ptr noundef nonnull %24, ptr noundef nonnull %25) #30
  %27 = sext i32 %26 to i64
  store i64 %27, ptr %1, align 8, !tbaa !10
  %28 = getelementptr inbounds nuw i8, ptr %1, i64 8
  store i32 4, ptr %28, align 8, !tbaa !10
  br label %29

29:                                               ; preds = %.thread69, %.critedge
  call void @llvm.lifetime.end.p0(i64 8, ptr nonnull %4) #28
  call void @llvm.lifetime.end.p0(i64 8, ptr nonnull %3) #28
  ret void
}